target datalayout = "e-m:e-p270:32:32-p271:32:32-p272:64:64-i64:64-i128:128-f80:128-n8:16:32:64-S128"
target triple = "x86_64-pc-linux-gnu"

%struct.FxuHeapDouble = type { ptr, i32, i32, i32 }
%struct.FxuDouble = type { i32, i32, i32, i32, %struct.FxuListPair, ptr, ptr, ptr }
%struct.FxuListPair = type { ptr, ptr, i32 }

; Function Attrs: nounwind uwtable
define internal void @Fxu_HeapDoubleSwap(ptr noundef %0, ptr noundef %1) #0 {
  %3 = alloca ptr, align 8
  %4 = alloca ptr, align 8
  %5 = alloca ptr, align 8
  %6 = alloca i32, align 4
  store ptr %0, ptr %3, align 8, !tbaa !28
  store ptr %1, ptr %4, align 8, !tbaa !28
  call void @llvm.lifetime.start.p0(i64 8, ptr %5) #6
  call void @llvm.lifetime.start.p0(i64 4, ptr %6) #6
  %7 = load ptr, ptr %3, align 8, !tbaa !28
  %8 = load ptr, ptr %7, align 8, !tbaa !14
  store ptr %8, ptr %5, align 8, !tbaa !14
  %9 = load ptr, ptr %4, align 8, !tbaa !28
  %10 = load ptr, ptr %9, align 8, !tbaa !14
  %11 = load ptr, ptr %3, align 8, !tbaa !28
  store ptr %10, ptr %11, align 8, !tbaa !14
  %12 = load ptr, ptr %5, align 8, !tbaa !14
  %13 = load ptr, ptr %4, align 8, !tbaa !28
  store ptr %12, ptr %13, align 8, !tbaa !14
  %14 = load ptr, ptr %3, align 8, !tbaa !28
  %15 = load ptr, ptr %14, align 8, !tbaa !14
  %16 = getelementptr inbounds nuw %struct.FxuDouble, ptr %15, i32 0, i32 1
  %17 = load i32, ptr %16, align 4, !tbaa !27
  store i32 %17, ptr %6, align 4, !tbaa !18
  %18 = load ptr, ptr %4, align 8, !tbaa !28
  %19 = load ptr, ptr %18, align 8, !tbaa !14
  %20 = getelementptr inbounds nuw %struct.FxuDouble, ptr %19, i32 0, i32 1
  %21 = load i32, ptr %20, align 4, !tbaa !27
  %22 = load ptr, ptr %3, align 8, !tbaa !28
  %23 = load ptr, ptr %22, align 8, !tbaa !14
  %24 = getelementptr inbounds nuw %struct.FxuDouble, ptr %23, i32 0, i32 1
  store i32 %21, ptr %24, align 4, !tbaa !27
  %25 = load i32, ptr %6, align 4, !tbaa !18
  %26 = load ptr, ptr %4, align 8, !tbaa !28
  %27 = load ptr, ptr %26, align 8, !tbaa !14
  %28 = getelementptr inbounds nuw %struct.FxuDouble, ptr %27, i32 0, i32 1
  store i32 %25, ptr %28, align 4, !tbaa !27
  call void @llvm.lifetime.end.p0(i64 4, ptr %6) #6
  call void @llvm.lifetime.end.p0(i64 8, ptr %5) #6
  ret void
}

; Function Attrs: nounwind uwtable
define internal void @Fxu_HeapDoubleMoveUp(ptr noundef %0, ptr noundef %1) #0 {
  %3 = alloca ptr, align 8
  %4 = alloca ptr, align 8
  %5 = alloca ptr, align 8
  %6 = alloca ptr, align 8
  store ptr %0, ptr %3, align 8, !tbaa !3
  store ptr %1, ptr %4, align 8, !tbaa !14
  call void @llvm.lifetime.start.p0(i64 8, ptr %5) #6
  call void @llvm.lifetime.start.p0(i64 8, ptr %6) #6
  %7 = load ptr, ptr %3, align 8, !tbaa !3
  %8 = getelementptr inbounds nuw %struct.FxuHeapDouble, ptr %7, i32 0, i32 0
  %9 = load ptr, ptr %8, align 8, !tbaa !13
  %10 = load ptr, ptr %4, align 8, !tbaa !14
  %11 = getelementptr inbounds nuw %struct.FxuDouble, ptr %10, i32 0, i32 1
  %12 = load i32, ptr %11, align 4, !tbaa !27
  %13 = sext i32 %12 to i64
  %14 = getelementptr inbounds ptr, ptr %9, i64 %13
  store ptr %14, ptr %5, align 8, !tbaa !28
  br label %15

15:                                               ; preds = %46, %2
  %16 = load ptr, ptr %5, align 8, !tbaa !28
  %17 = load ptr, ptr %16, align 8, !tbaa !14
  %18 = getelementptr inbounds nuw %struct.FxuDouble, ptr %17, i32 0, i32 1
  %19 = load i32, ptr %18, align 4, !tbaa !27
  %20 = icmp sgt i32 %19, 1
  br i1 %20, label %21, label %47

21:                                               ; preds = %15
  %22 = load ptr, ptr %3, align 8, !tbaa !3
  %23 = getelementptr inbounds nuw %struct.FxuHeapDouble, ptr %22, i32 0, i32 0
  %24 = load ptr, ptr %23, align 8, !tbaa !13
  %25 = load ptr, ptr %5, align 8, !tbaa !28
  %26 = load ptr, ptr %25, align 8, !tbaa !14
  %27 = getelementptr inbounds nuw %struct.FxuDouble, ptr %26, i32 0, i32 1
  %28 = load i32, ptr %27, align 4, !tbaa !27
  %29 = ashr i32 %28, 1
  %30 = sext i32 %29 to i64
  %31 = getelementptr inbounds ptr, ptr %24, i64 %30
  store ptr %31, ptr %6, align 8, !tbaa !28
  %32 = load ptr, ptr %5, align 8, !tbaa !28
  %33 = load ptr, ptr %32, align 8, !tbaa !14
  %34 = getelementptr inbounds nuw %struct.FxuDouble, ptr %33, i32 0, i32 2
  %35 = load i32, ptr %34, align 8, !tbaa !20
  %36 = load ptr, ptr %6, align 8, !tbaa !28
  %37 = load ptr, ptr %36, align 8, !tbaa !14
  %38 = getelementptr inbounds nuw %struct.FxuDouble, ptr %37, i32 0, i32 2
  %39 = load i32, ptr %38, align 8, !tbaa !20
  %40 = icmp sgt i32 %35, %39
  br i1 %40, label %41, label %45

41:                                               ; preds = %21
  %42 = load ptr, ptr %5, align 8, !tbaa !28
  %43 = load ptr, ptr %6, align 8, !tbaa !28
  call void @Fxu_HeapDoubleSwap(ptr noundef %42, ptr noundef %43)
  %44 = load ptr, ptr %6, align 8, !tbaa !28
  store ptr %44, ptr %5, align 8, !tbaa !28
  br label %46

45:                                               ; preds = %21
  br label %47

46:                                               ; preds = %41
  br label %15, !llvm.loop !29

47:                                               ; preds = %45, %15
  call void @llvm.lifetime.end.p0(i64 8, ptr %6) #6
  call void @llvm.lifetime.end.p0(i64 8, ptr %5) #6
  ret void
}

; Function Attrs: nounwind uwtable
define internal void @Fxu_HeapDoubleResize(ptr noundef %0) #0 {
  %2 = alloca ptr, align 8
  store ptr %0, ptr %2, align 8, !tbaa !3
  %3 = load ptr, ptr %2, align 8, !tbaa !3
  %4 = getelementptr inbounds nuw %struct.FxuHeapDouble, ptr %3, i32 0, i32 2
  %5 = load i32, ptr %4, align 4, !tbaa !12
  %6 = mul nsw i32 %5, 2
  store i32 %6, ptr %4, align 4, !tbaa !12
  %7 = load ptr, ptr %2, align 8, !tbaa !3
  %8 = getelementptr inbounds nuw %struct.FxuHeapDouble, ptr %7, i32 0, i32 0
  %9 = load ptr, ptr %8, align 8, !tbaa !13
  %10 = icmp ne ptr %9, null
  br i1 %10, label %11, label %22

11:                                               ; preds = %1
  %12 = load ptr, ptr %2, align 8, !tbaa !3
  %13 = getelementptr inbounds nuw %struct.FxuHeapDouble, ptr %12, i32 0, i32 0
  %14 = load ptr, ptr %13, align 8, !tbaa !13
  %15 = load ptr, ptr %2, align 8, !tbaa !3
  %16 = getelementptr inbounds nuw %struct.FxuHeapDouble, ptr %15, i32 0, i32 2
  %17 = load i32, ptr %16, align 4, !tbaa !12
  %18 = add nsw i32 %17, 1
  %19 = sext i32 %18 to i64
  %20 = mul i64 8, %19
  %21 = call ptr @realloc(ptr noundef %14, i64 noundef %20) #8
  br label %30

22:                                               ; preds = %1
  %23 = load ptr, ptr %2, align 8, !tbaa !3
  %24 = getelementptr inbounds nuw %struct.FxuHeapDouble, ptr %23, i32 0, i32 2
  %25 = load i32, ptr %24, align 4, !tbaa !12
  %26 = add nsw i32 %25, 1
  %27 = sext i32 %26 to i64
  %28 = mul i64 8, %27
  %29 = call noalias ptr @malloc(i64 noundef %28) #7
  br label %30

30:                                               ; preds = %22, %11
  %31 = phi ptr [ %21, %11 ], [ %29, %22 ]
  %32 = load ptr, ptr %2, align 8, !tbaa !3
  %33 = getelementptr inbounds nuw %struct.FxuHeapDouble, ptr %32, i32 0, i32 0
  store ptr %31, ptr %33, align 8, !tbaa !13
  ret void
}

; Function Attrs: nounwind uwtable
define void @Fxu_HeapDoubleInsert(ptr noundef %0, ptr noundef %1) #0 {
  %3 = alloca ptr, align 8
  %4 = alloca ptr, align 8
  store ptr %0, ptr %3, align 8, !tbaa !3
  store ptr %1, ptr %4, align 8, !tbaa !14
  %5 = load ptr, ptr %3, align 8, !tbaa !3
  %6 = getelementptr inbounds nuw %struct.FxuHeapDouble, ptr %5, i32 0, i32 1
  %7 = load i32, ptr %6, align 8, !tbaa !8
  %8 = load ptr, ptr %3, align 8, !tbaa !3
  %9 = getelementptr inbounds nuw %struct.FxuHeapDouble, ptr %8, i32 0, i32 2
  %10 = load i32, ptr %9, align 4, !tbaa !12
  %11 = icmp eq i32 %7, %10
  br i1 %11, label %12, label %14

12:                                               ; preds = %2
  %13 = load ptr, ptr %3, align 8, !tbaa !3
  call void @Fxu_HeapDoubleResize(ptr noundef %13)
  br label %14

14:                                               ; preds = %12, %2
  %15 = load ptr, ptr %4, align 8, !tbaa !14
  %16 = load ptr, ptr %3, align 8, !tbaa !3
  %17 = getelementptr inbounds nuw %struct.FxuHeapDouble, ptr %16, i32 0, i32 0
  %18 = load ptr, ptr %17, align 8, !tbaa !13
  %19 = load ptr, ptr %3, align 8, !tbaa !3
  %20 = getelementptr inbounds nuw %struct.FxuHeapDouble, ptr %19, i32 0, i32 1
  %21 = load i32, ptr %20, align 8, !tbaa !8
  %22 = add nsw i32 %21, 1
  store i32 %22, ptr %20, align 8, !tbaa !8
  %23 = sext i32 %22 to i64
  %24 = getelementptr inbounds ptr, ptr %18, i64 %23
  store ptr %15, ptr %24, align 8, !tbaa !14
  %25 = load ptr, ptr %3, align 8, !tbaa !3
  %26 = getelementptr inbounds nuw %struct.FxuHeapDouble, ptr %25, i32 0, i32 1
  %27 = load i32, ptr %26, align 8, !tbaa !8
  %28 = load ptr, ptr %4, align 8, !tbaa !14
  %29 = getelementptr inbounds nuw %struct.FxuDouble, ptr %28, i32 0, i32 1
  store i32 %27, ptr %29, align 4, !tbaa !27
  %30 = load ptr, ptr %3, align 8, !tbaa !3
  %31 = load ptr, ptr %4, align 8, !tbaa !14
  call void @Fxu_HeapDoubleMoveUp(ptr noundef %30, ptr noundef %31)
  ret void
}